ccopy_reg
_reconstructor
p0
(cgoogle.oauth2.credentials
Credentials
p1
c__builtin__
object
p2
Ntp3
Rp4
(dp5
S'_quota_project_id'
p6
NsS'_token_uri'
p7
Vhttps://oauth2.googleapis.com/token
p8
sS'_client_secret'
p9
VVH29LJiC-VBNPnGNykoVFe3X
p10
sS'_id_token'
p11
NsS'token'
p12
Vya29.Il-7B-XuxlVglKoaRK99PL4mZ4a_ZZ-TbApcn-E0KaAvP6eAVe14JR0RLD4P9bJSqB8gwCiA-aj4SfZEYOaoc1d9ixYf68olmBEKMOZoqAC0wGiLezpWddmJdfVqij6prg
p13
sS'_refresh_token'
p14
V1//06C3TVp8SQz2-CgYIARAAGAYSNwF-L9IrhovZQN19QXQSpCPZfdWSvez8916IduGLUbN_wFYT6PHPt1bElYbQ8H85OPPkXnoQKew
p15
sS'_scopes'
p16
(lp17
S'https://www.googleapis.com/auth/gmail.readonly'
p18
asS'_client_id'
p19
V439853448150-vk8v16kq5otqqnj9nu6ojvg1604f8msu.apps.googleusercontent.com
p20
sS'expiry'
p21
cdatetime
datetime
p22
(S'\x07\xe4\x01\x1d\x16\x10!\x056\xe7'
p23
tp24
Rp25
sb.